010000: 110002	   jms main
010001: 020016	   sys exit
010002: 000000	main: 0
010003: 213302	   lac o_pl
010004: 740001	   cma
010005: 353304	   tad o_m1
010006: 353305	   tad o_m2
010007: 353306	   tad o_m3
010010: 353307	   tad o_m4
010011: 353327	   tad d2
010012: 740001	   cma
010013: 053314	   dac TXTLEN
010014: 153025	   dzm assylen
010015: 152543	   dzm .temp1
010016: 212716	   lac assyline
010017: 052567	   dac .ptr
010020: 212543	   lac .temp1
010021: 072567	   dac .ptr i
010022: 110033	   jms readfile
010023: 052543	   dac .temp1
010024: 111101	   jms writebreak
010025: 052544	   dac .temp2
010026: 111371	   jms endpage
010027: 052545	   dac .temp3
010030: 113515	   jms .exit
010031: 052546	   dac .temp4
010032: 630002	   jmp main i
010033: 000000	readfile: 0
010034: 110045	   jms readline
010035: 741200	   sna
010036: 610044	   jmp LL2
010037: 213246	   lac isrequest
010040: 741200	   sna
010041: 610043	   jmp LL3
010042: 610034	   jmp LL1
010043: 610034	   jmp LL1
010044: 630033	   jmp readfile i
010045: 000000	readline: 0
010046: 153246	   dzm isrequest
010047: 213326	   lac d1
010050: 053355	   dac readline.startline
010051: 153356	   dzm readline.doingword
010052: 112223	   jms suck
010053: 053315	   dac c
010054: 553321	   sad d10
010055: 610057	   jmp LL7
010056: 610065	   jmp LL5
010057: 213326	   lac d1
010060: 053303	   dac o_sp
010061: 111101	   jms writebreak
010062: 052543	   dac .temp1
010063: 610310	   jmp out
010064: 610074	   jmp LL6
010065: 213315	   lac c
010066: 053414	   dac isspace.c
010067: 112251	   jms isspace
010070: 741200	   sna
010071: 610074	   jmp LL8
010072: 111101	   jms writebreak
010073: 052543	   dac .temp1
010074: 213326	   lac d1
010075: 741200	   sna
010076: 610310	   jmp LL11
010077: 213315	   lac c
010100: 553336	   sad d4
010101: 610103	   jmp LL14
010102: 610111	   jmp LL12
010103: 213356	   lac readline.doingword
010104: 741200	   sna
010105: 610110	   jmp LL15
010106: 110327	   jms bumpword
010107: 052543	   dac .temp1
010110: 610310	   jmp LL11
010111: 213315	   lac c
010112: 053414	   dac isspace.c
010113: 112251	   jms isspace
010114: 741200	   sna
010115: 610156	   jmp LL17
010116: 213356	   lac readline.doingword
010117: 553345	   sad d0
010120: 610122	   jmp LL21
010121: 610156	   jmp LL19
010122: 153355	   dzm readline.startline
010123: 213315	   lac c
010124: 553334	   sad d32
010125: 610127	   jmp LL24
010126: 610140	   jmp LL22
010127: 213334	   lac d32
010130: 052543	   dac .temp1
010131: 212716	   lac assyline
010132: 353025	   tad assylen
010133: 052567	   dac .ptr
010134: 212543	   lac .temp1
010135: 072567	   dac .ptr i
010136: 453025	   isz assylen
010137: 740000	   nop
010140: 213315	   lac c
010141: 553341	   sad d9
010142: 610144	   jmp LL27
010143: 610146	   jmp LL25
010144: 110376	   jms tabulate
010145: 052543	   dac .temp1
010146: 213315	   lac c
010147: 553321	   sad d10
010150: 610152	   jmp LL30
010151: 610153	   jmp LL28
010152: 610310	   jmp out
010153: 112223	   jms suck
010154: 053315	   dac c
010155: 610074	   jmp LL10
010156: 213315	   lac c
010157: 053414	   dac isspace.c
010160: 112251	   jms isspace
010161: 741200	   sna
010162: 610221	   jmp LL31
010163: 213356	   lac readline.doingword
010164: 741200	   sna
010165: 610221	   jmp LL33
010166: 110327	   jms bumpword
010167: 052543	   dac .temp1
010170: 213315	   lac c
010171: 553341	   sad d9
010172: 610174	   jmp LL37
010173: 610177	   jmp LL35
010174: 110376	   jms tabulate
010175: 052543	   dac .temp1
010176: 610213	   jmp LL36
010177: 213025	   lac assylen
010200: 741200	   sna
010201: 610213	   jmp LL38
010202: 213334	   lac d32
010203: 052543	   dac .temp1
010204: 212716	   lac assyline
010205: 353025	   tad assylen
010206: 052567	   dac .ptr
010207: 212543	   lac .temp1
010210: 072567	   dac .ptr i
010211: 453025	   isz assylen
010212: 740000	   nop
010213: 153356	   dzm readline.doingword
010214: 213315	   lac c
010215: 553321	   sad d10
010216: 610220	   jmp LL42
010217: 610221	   jmp LL40
010220: 610310	   jmp LL11
010221: 213315	   lac c
010222: 053414	   dac isspace.c
010223: 112251	   jms isspace
010224: 553345	   sad d0
010225: 610227	   jmp LL45
010226: 610304	   jmp LL43
010227: 213356	   lac readline.doingword
010230: 741200	   sna
010231: 610250	   jmp LL46
010232: 213310	   lac o_ul
010233: 741200	   sna
010234: 610243	   jmp LL48
010235: 212570	   lac UNDERL
010236: 652000	   lmq
010237: 213315	   lac c
010240: 640002	   omq
010241: 072715	   dac holdp i
010242: 610245	   jmp LL49
010243: 213315	   lac c
010244: 072715	   dac holdp i
010245: 452715	   isz holdp
010246: 740000	   nop
010247: 610304	   jmp readline1
010250: 213355	   lac readline.startline
010251: 741200	   sna
010252: 610263	   jmp LL50
010253: 213315	   lac c
010254: 553247	   sad o_cc
010255: 610257	   jmp LL54
010256: 610263	   jmp LL52
010257: 213326	   lac d1
010260: 053246	   dac isrequest
010261: 110476	   jms readreq
010262: 630045	   jmp readline i
010263: 213326	   lac d1
010264: 053356	   dac readline.doingword
010265: 212606	   lac holdword
010266: 052715	   dac holdp
010267: 213310	   lac o_ul
010270: 741200	   sna
010271: 610300	   jmp LL55
010272: 212570	   lac UNDERL
010273: 652000	   lmq
010274: 213315	   lac c
010275: 640002	   omq
010276: 072715	   dac holdp i
010277: 610302	   jmp LL56
010300: 213315	   lac c
010301: 072715	   dac holdp i
010302: 452715	   isz holdp
010303: 740000	   nop
010304: 153355	   dzm readline.startline
010305: 112223	   jms suck
010306: 053315	   dac c
010307: 610074	   jmp LL10
010310: 213310	   lac o_ul
010311: 741200	   sna
010312: 610316	   jmp LL57
010313: 777777	   -1 ; tad o_ul
010314: 353310	
010315: 053310	   dac o_ul
010316: 213315	   lac c
010317: 553336	   sad d4
010320: 610324	   jmp LL59
010321: 213326	   lac d1
010322: 630045	   jmp readline i
010323: 610326	   jmp LL60
010324: 213345	   lac d0
010325: 630045	   jmp readline i
010326: 630045	   jmp readline i
010327: 000000	bumpword: 0
010330: 172715	   dzm holdp i
010331: 212606	   lac holdword
010332: 053374	   dac strlen.s
010333: 112527	   jms strlen
010334: 052543	   dac .temp1
010335: 213025	   lac assylen
010336: 352543	   tad .temp1
010337: 052543	   dac .temp1
010340: 213300	   lac o_ll
010341: 740001	   cma
010342: 353251	   tad o_in
010343: 352543	   tad .temp1
010344: 740001	   cma
010345: 740100	   sma
010346: 610354	   jmp LL61
010347: 213301	   lac o_ad
010350: 053417	   dac writeline.adflag
010351: 153420	   dzm writeline.flushflag
010352: 111170	   jms writeline
010353: 052543	   dac .temp1
010354: 212716	   lac assyline
010355: 353025	   tad assylen
010356: 053415	   dac bumpword.x
010357: 053376	   dac strcpy.dst
010360: 212606	   lac holdword
010361: 053377	   dac strcpy.src
010362: 112512	   jms strcpy
010363: 052543	   dac .temp1
010364: 212606	   lac holdword
010365: 053374	   dac strlen.s
010366: 112527	   jms strlen
010367: 052544	   dac .temp2
010370: 213025	   lac assylen
010371: 352544	   tad .temp2
010372: 053025	   dac assylen
010373: 212606	   lac holdword
010374: 052715	   dac holdp
010375: 630327	   jmp bumpword i
010376: 000000	tabulate: 0
010377: 153350	   dzm tabulate.j
010400: 213350	   lac tabulate.j
010401: 740001	   cma
010402: 353277	   tad n_ta
010403: 740001	   cma
010404: 740100	   sma
010405: 610464	   jmp LL64
010406: 213252	   lac o_ta
010407: 353350	   tad tabulate.j
010410: 052567	   dac .ptr
010411: 232567	   lac .ptr i
010412: 740001	   cma
010413: 353326	   tad d1
010414: 740001	   cma
010415: 052543	   dac .temp1
010416: 213025	   lac assylen
010417: 353251	   tad o_in
010420: 740001	   cma
010421: 352543	   tad .temp1
010422: 740001	   cma
010423: 740100	   sma
010424: 610461	   jmp LL65
010425: 213025	   lac assylen
010426: 353251	   tad o_in
010427: 052543	   dac .temp1
010430: 213252	   lac o_ta
010431: 353350	   tad tabulate.j
010432: 052567	   dac .ptr
010433: 232567	   lac .ptr i
010434: 740001	   cma
010435: 353326	   tad d1
010436: 740001	   cma
010437: 052544	   dac .temp2
010440: 212543	   lac .temp1
010441: 740001	   cma
010442: 352544	   tad .temp2
010443: 740001	   cma
010444: 740100	   sma
010445: 610460	   jmp LL68
010446: 213250	   lac o_tc
010447: 052544	   dac .temp2
010450: 212716	   lac assyline
010451: 353025	   tad assylen
010452: 052567	   dac .ptr
010453: 212544	   lac .temp2
010454: 072567	   dac .ptr i
010455: 453025	   isz assylen
010456: 740000	   nop
010457: 610425	   jmp LL67
010460: 630376	   jmp tabulate i
010461: 453350	   isz tabulate.j
010462: 740000	   nop
010463: 610400	   jmp LL63
010464: 213250	   lac o_tc
010465: 052543	   dac .temp1
010466: 212716	   lac assyline
010467: 353025	   tad assylen
010470: 052567	   dac .ptr
010471: 212543	   lac .temp1
010472: 072567	   dac .ptr i
010473: 453025	   isz assylen
010474: 740000	   nop
010475: 630376	   jmp tabulate i
010476: 000000	readreq: 0
010477: 111040	   jms skipsp
010500: 741200	   sna
010501: 610503	   jmp LL69
010502: 610633	   jmp readend
010503: 112223	   jms suck
010504: 053315	   dac c
010505: 553336	   sad d4
010506: 610510	   jmp LL73
010507: 610511	   jmp LL71
010510: 610633	   jmp readend
010511: 213315	   lac c
010512: 553321	   sad d10
010513: 610515	   jmp LL76
010514: 610516	   jmp LL74
010515: 610633	   jmp readend
010516: 213315	   lac c
010517: 553324	   sad d46
010520: 610522	   jmp LL79
010521: 610542	   jmp LL77
010522: 213326	   lac d1
010523: 741200	   sna
010524: 610541	   jmp LL81
010525: 112223	   jms suck
010526: 053315	   dac c
010527: 553336	   sad d4
010530: 610532	   jmp LL84
010531: 610533	   jmp LL82
010532: 610541	   jmp LL81
010533: 213315	   lac c
010534: 553321	   sad d10
010535: 610537	   jmp LL87
010536: 610540	   jmp LL85
010537: 610541	   jmp LL81
010540: 610522	   jmp LL80
010541: 610633	   jmp readend
010542: 213315	   lac c
010543: 640611	   lls 9
010544: 053401	   dac readreq.r
010545: 112223	   jms suck
010546: 053315	   dac c
010547: 553336	   sad d4
010550: 610557	   jmp LL88
010551: 553321	   sad d10
010552: 610557	   jmp LL90
010553: 652000	   lmq
010554: 213401	   lac readreq.r
010555: 640002	   omq
010556: 053401	   dac readreq.r
010557: 213401	   lac readreq.r
010560: 553322	   sad d56936
010561: 610563	   jmp LL94
010562: 610567	   jmp LL92
010563: 213026	   lac ohead
010564: 053363	   dac tread.s
010565: 110644	   jms tread
010566: 053315	   dac c
010567: 213401	   lac readreq.r
010570: 553344	   sad d58992
010571: 610573	   jmp LL97
010572: 610577	   jmp LL95
010573: 110711	   jms nread
010574: 053303	   dac o_sp
010575: 111101	   jms writebreak
010576: 052543	   dac .temp1
010577: 213401	   lac readreq.r
010600: 553346	   sad d59489
010601: 610603	   jmp LL100
010602: 610605	   jmp LL98
010603: 110775	   jms do_ta
010604: 052543	   dac .temp1
010605: 213401	   lac readreq.r
010606: 553335	   sad d60012
010607: 610611	   jmp LL103
010610: 610613	   jmp LL101
010611: 110711	   jms nread
010612: 053310	   dac o_ul
010613: 213326	   lac d1
010614: 741200	   sna
010615: 610633	   jmp LL105
010616: 213315	   lac c
010617: 553336	   sad d4
010620: 610622	   jmp LL108
010621: 610623	   jmp LL106
010622: 610633	   jmp LL105
010623: 213315	   lac c
010624: 553321	   sad d10
010625: 610627	   jmp LL111
010626: 610630	   jmp LL109
010627: 610633	   jmp LL105
010630: 112223	   jms suck
010631: 053315	   dac c
010632: 610613	   jmp LL104
010633: 213315	   lac c
010634: 553336	   sad d4
010635: 610641	   jmp LL112
010636: 213326	   lac d1
010637: 630476	   jmp readreq i
010640: 610643	   jmp LL113
010641: 213345	   lac d0
010642: 630476	   jmp readreq i
010643: 630476	   jmp readreq i
010644: 000000	tread: 0
010645: 153364	   dzm tread.leadbl
010646: 213326	   lac d1
010647: 741200	   sna
010650: 610710	   jmp LL115
010651: 112223	   jms suck
010652: 053315	   dac c
010653: 553334	   sad d32
010654: 610656	   jmp LL118
010655: 610663	   jmp LL116
010656: 213364	   lac tread.leadbl
010657: 553345	   sad d0
010660: 610662	   jmp LL121
010661: 610663	   jmp LL119
010662: 610646	   jmp LL114
010663: 213315	   lac c
010664: 553336	   sad d4
010665: 610667	   jmp LL124
010666: 610672	   jmp LL122
010667: 173363	   dzm tread.s i
010670: 213315	   lac c
010671: 630644	   jmp tread i
010672: 213315	   lac c
010673: 553321	   sad d10
010674: 610676	   jmp LL127
010675: 610701	   jmp LL125
010676: 173363	   dzm tread.s i
010677: 213315	   lac c
010700: 630644	   jmp tread i
010701: 213315	   lac c
010702: 073363	   dac tread.s i
010703: 453363	   isz tread.s
010704: 740000	   nop
010705: 453364	   isz tread.leadbl
010706: 740000	   nop
010707: 610646	   jmp LL114
010710: 630644	   jmp tread i
010711: 000000	nread: 0
010712: 153361	   dzm nread.i
010713: 153362	   dzm nread.f
010714: 111040	   jms skipsp
010715: 553345	   sad d0
010716: 610720	   jmp LL130
010717: 610765	   jmp LL128
010720: 213326	   lac d1
010721: 741200	   sna
010722: 610765	   jmp LL132
010723: 112223	   jms suck
010724: 053315	   dac c
010725: 553336	   sad d4
010726: 610730	   jmp LL135
010727: 610731	   jmp LL133
010730: 610765	   jmp LL132
010731: 213315	   lac c
010732: 053414	   dac isspace.c
010733: 112251	   jms isspace
010734: 741200	   sna
010735: 610737	   jmp LL136
010736: 610765	   jmp LL132
010737: 213315	   lac c
010740: 053425	   dac isdigit.c
010741: 112353	   jms isdigit
010742: 741200	   sna
010743: 610763	   jmp LL138
010744: 453362	   isz nread.f
010745: 740000	   nop
010746: 213321	   lac d10
010747: 050753	   dac .+4
010750: 213361	   lac nread.i
010751: 744000	   cll; mul; ..; lacq
010752: 653122	
010753: 010000	
010754: 641002	
010755: 353315	   tad c
010756: 740001	   cma
010757: 353331	   tad d48
010760: 740001	   cma
010761: 053361	   dac nread.i
010762: 610764	   jmp LL139
010763: 610765	   jmp LL132
010764: 610720	   jmp LL131
010765: 213362	   lac nread.f
010766: 553345	   sad d0
010767: 610771	   jmp LL142
010770: 610773	   jmp LL140
010771: 213326	   lac d1
010772: 053361	   dac nread.i
010773: 213361	   lac nread.i
010774: 630711	   jmp nread i
010775: 000000	do_ta: 0
010776: 153277	   dzm n_ta
010777: 213326	   lac d1
011000: 741200	   sna
011001: 611037	   jmp LL144
011002: 213373	   lac do_ta.v
011003: 053361	   dac nread.i
011004: 110711	   jms nread
011005: 053373	   dac do_ta.v
011006: 553326	   sad d1
011007: 611011	   jmp LL147
011010: 611013	   jmp LL145
011011: 630775	   jmp do_ta i
011012: 611024	   jmp LL146
011013: 213373	   lac do_ta.v
011014: 052543	   dac .temp1
011015: 213252	   lac o_ta
011016: 353277	   tad n_ta
011017: 052567	   dac .ptr
011020: 212543	   lac .temp1
011021: 072567	   dac .ptr i
011022: 453277	   isz n_ta
011023: 740000	   nop
011024: 213315	   lac c
011025: 553321	   sad d10
011026: 611030	   jmp LL150
011027: 611031	   jmp LL148
011030: 611037	   jmp LL144
011031: 213315	   lac c
011032: 553336	   sad d4
011033: 611035	   jmp LL153
011034: 611036	   jmp LL151
011035: 611037	   jmp LL144
011036: 610777	   jmp LL143
011037: 630775	   jmp do_ta i
011040: 000000	skipsp: 0
011041: 213326	   lac d1
011042: 741200	   sna
011043: 611100	   jmp LL155
011044: 112223	   jms suck
011045: 053315	   dac c
011046: 553336	   sad d4
011047: 611051	   jmp LL158
011050: 611053	   jmp LL156
011051: 213326	   lac d1
011052: 631040	   jmp skipsp i
011053: 213315	   lac c
011054: 553321	   sad d10
011055: 611057	   jmp LL161
011056: 611061	   jmp LL159
011057: 213326	   lac d1
011060: 631040	   jmp skipsp i
011061: 213315	   lac c
011062: 553334	   sad d32
011063: 611065	   jmp LL164
011064: 611066	   jmp LL162
011065: 611041	   jmp LL154
011066: 213315	   lac c
011067: 553341	   sad d9
011070: 611072	   jmp LL167
011071: 611073	   jmp LL165
011072: 611041	   jmp LL154
011073: 213315	   lac c
011074: 053316	   dac cachec
011075: 213345	   lac d0
011076: 631040	   jmp skipsp i
011077: 611041	   jmp LL154
011100: 631040	   jmp skipsp i
011101: 000000	writebreak: 0
011102: 213025	   lac assylen
011103: 741200	   sna
011104: 611112	   jmp LL168
011105: 153417	   dzm writeline.adflag
011106: 213326	   lac d1
011107: 053420	   dac writeline.flushflag
011110: 111170	   jms writeline
011111: 052543	   dac .temp1
011112: 213314	   lac TXTLEN
011113: 053412	   dac writebreak.q
011114: 213303	   lac o_sp
011115: 741200	   sna
011116: 611147	   jmp LL170
011117: 213303	   lac o_sp
011120: 353312	   tad line_no
011121: 052543	   dac .temp1
011122: 213412	   lac writebreak.q
011123: 740001	   cma
011124: 352543	   tad .temp1
011125: 740001	   cma
011126: 740100	   sma
011127: 611133	   jmp LL172
011130: 111312	   jms newpage
011131: 052543	   dac .temp1
011132: 611147	   jmp LL173
011133: 213312	   lac line_no
011134: 741200	   sna
011135: 611147	   jmp LL174
011136: 213303	   lac o_sp
011137: 741200	   sna
011140: 611147	   jmp LL177
011141: 111150	   jms blankline
011142: 052543	   dac .temp1
011143: 777777	   -1 ; tad o_sp
011144: 353303	
011145: 053303	   dac o_sp
011146: 611136	   jmp LL176
011147: 631101	   jmp writebreak i
011150: 000000	blankline: 0
011151: 213312	   lac line_no
011152: 740001	   cma
011153: 353314	   tad TXTLEN
011154: 740001	   cma
011155: 741100	   spa
011156: 611161	   jmp LL178
011157: 111312	   jms newpage
011160: 052543	   dac .temp1
011161: 213321	   lac d10
011162: 053365	   dac spit.c
011163: 112121	   jms spit
011164: 052544	   dac .temp2
011165: 453312	   isz line_no
011166: 740000	   nop
011167: 631150	   jmp blankline i
011170: 000000	writeline: 0
011171: 213025	   lac assylen
011172: 740001	   cma
011173: 353326	   tad d1
011174: 740001	   cma
011175: 053421	   dac writeline.j
011176: 213421	   lac writeline.j
011177: 741200	   sna
011200: 611221	   jmp LL181
011201: 212716	   lac assyline
011202: 353421	   tad writeline.j
011203: 052567	   dac .ptr
011204: 232567	   lac .ptr i
011205: 553334	   sad d32
011206: 611210	   jmp LL184
011207: 611214	   jmp LL182
011210: 777777	   -1 ; tad assylen
011211: 353025	
011212: 053025	   dac assylen
011213: 611215	   jmp LL183
011214: 611221	   jmp LL181
011215: 777777	   -1 ; tad writeline.j
011216: 353421	
011217: 053421	   dac writeline.j
011220: 611176	   jmp LL180
011221: 213314	   lac TXTLEN
011222: 053422	   dac writeline.q
011223: 213312	   lac line_no
011224: 740001	   cma
011225: 353422	   tad writeline.q
011226: 740001	   cma
011227: 741100	   spa
011230: 611233	   jmp LL185
011231: 111312	   jms newpage
011232: 052543	   dac .temp1
011233: 153421	   dzm writeline.j
011234: 213421	   lac writeline.j
011235: 740001	   cma
011236: 353025	   tad assylen
011237: 740001	   cma
011240: 740100	   sma
011241: 611254	   jmp LL188
011242: 212716	   lac assyline
011243: 353421	   tad writeline.j
011244: 052567	   dac .ptr
011245: 232567	   lac .ptr i
011246: 053365	   dac spit.c
011247: 112121	   jms spit
011250: 052543	   dac .temp1
011251: 453421	   isz writeline.j
011252: 740000	   nop
011253: 611234	   jmp LL187
011254: 213321	   lac d10
011255: 053365	   dac spit.c
011256: 112121	   jms spit
011257: 052544	   dac .temp2
011260: 153025	   dzm assylen
011261: 152543	   dzm .temp1
011262: 212716	   lac assyline
011263: 052567	   dac .ptr
011264: 212543	   lac .temp1
011265: 072567	   dac .ptr i
011266: 453312	   isz line_no
011267: 740000	   nop
011270: 213420	   lac writeline.flushflag
011271: 553345	   sad d0
011272: 611274	   jmp LL191
011273: 611311	   jmp LL189
011274: 212716	   lac assyline
011275: 053376	   dac strcpy.dst
011276: 212606	   lac holdword
011277: 053377	   dac strcpy.src
011300: 112512	   jms strcpy
011301: 052543	   dac .temp1
011302: 212606	   lac holdword
011303: 053374	   dac strlen.s
011304: 112527	   jms strlen
011305: 053025	   dac assylen
011306: 172606	   dzm holdword i
011307: 212606	   lac holdword
011310: 052715	   dac holdp
011311: 631170	   jmp writeline i
011312: 000000	newpage: 0
011313: 213311	   lac page_no
011314: 741100	   spa
011315: 611321	   jmp LL192
011316: 111371	   jms endpage
011317: 052543	   dac .temp1
011320: 611323	   jmp LL193
011321: 213326	   lac d1
011322: 053311	   dac page_no
011323: 111326	   jms beginpage
011324: 052543	   dac .temp1
011325: 631312	   jmp newpage i
011326: 000000	beginpage: 0
011327: 153413	   dzm beginpage.i
011330: 213413	   lac beginpage.i
011331: 740001	   cma
011332: 353304	   tad o_m1
011333: 740001	   cma
011334: 740100	   sma
011335: 611345	   jmp LL195
011336: 213321	   lac d10
011337: 053365	   dac spit.c
011340: 112121	   jms spit
011341: 052543	   dac .temp1
011342: 453413	   isz beginpage.i
011343: 740000	   nop
011344: 611330	   jmp LL194
011345: 213026	   lac ohead
011346: 053402	   dac writetitle.t
011347: 111456	   jms writetitle
011350: 052544	   dac .temp2
011351: 153413	   dzm beginpage.i
011352: 213413	   lac beginpage.i
011353: 740001	   cma
011354: 353305	   tad o_m2
011355: 740001	   cma
011356: 740100	   sma
011357: 611367	   jmp LL197
011360: 213321	   lac d10
011361: 053365	   dac spit.c
011362: 112121	   jms spit
011363: 052543	   dac .temp1
011364: 453413	   isz beginpage.i
011365: 740000	   nop
011366: 611352	   jmp LL196
011367: 153312	   dzm line_no
011370: 631326	   jmp beginpage i
011371: 000000	endpage: 0
011372: 213312	   lac line_no
011373: 053371	   dac endpage.i
011374: 213371	   lac endpage.i
011375: 740001	   cma
011376: 353314	   tad TXTLEN
011377: 740001	   cma
011400: 740100	   sma
011401: 611413	   jmp LL199
011402: 213321	   lac d10
011403: 053365	   dac spit.c
011404: 112121	   jms spit
011405: 052543	   dac .temp1
011406: 453312	   isz line_no
011407: 740000	   nop
011410: 453371	   isz endpage.i
011411: 740000	   nop
011412: 611374	   jmp LL198
011413: 153371	   dzm endpage.i
011414: 213371	   lac endpage.i
011415: 740001	   cma
011416: 353306	   tad o_m3
011417: 740001	   cma
011420: 740100	   sma
011421: 611431	   jmp LL201
011422: 213321	   lac d10
011423: 053365	   dac spit.c
011424: 112121	   jms spit
011425: 052543	   dac .temp1
011426: 453371	   isz endpage.i
011427: 740000	   nop
011430: 611414	   jmp LL200
011431: 213135	   lac ofoot
011432: 053402	   dac writetitle.t
011433: 111456	   jms writetitle
011434: 052544	   dac .temp2
011435: 153371	   dzm endpage.i
011436: 213371	   lac endpage.i
011437: 740001	   cma
011440: 353307	   tad o_m4
011441: 740001	   cma
011442: 740100	   sma
011443: 611453	   jmp LL203
011444: 213321	   lac d10
011445: 053365	   dac spit.c
011446: 112121	   jms spit
011447: 052543	   dac .temp1
011450: 453371	   isz endpage.i
011451: 740000	   nop
011452: 611436	   jmp LL202
011453: 453311	   isz page_no
011454: 740000	   nop
011455: 631371	   jmp endpage i
011456: 000000	writetitle: 0
011457: 233402	   lac writetitle.t i
011460: 053403	   dac writetitle.d
011461: 553345	   sad d0
011462: 611464	   jmp LL206
011463: 611471	   jmp LL204
011464: 213321	   lac d10
011465: 053365	   dac spit.c
011466: 112121	   jms spit
011467: 052543	   dac .temp1
011470: 631456	   jmp writetitle i
011471: 112041	   jms pgform
011472: 053404	   dac writetitle.pst
011473: 053374	   dac strlen.s
011474: 112527	   jms strlen
011475: 053411	   dac writetitle.pstlen
011476: 453402	   isz writetitle.t
011477: 740000	   nop
011500: 213402	   lac writetitle.t
011501: 053351	   dac titlen.t
011502: 213403	   lac writetitle.d
011503: 053352	   dac titlen.c
011504: 213411	   lac writetitle.pstlen
011505: 053353	   dac titlen.k
011506: 112047	   jms titlen
011507: 053406	   dac writetitle.l
011510: 213326	   lac d1
011511: 741200	   sna
011512: 611545	   jmp LL208
011513: 233402	   lac writetitle.t i
011514: 553345	   sad d0
011515: 611517	   jmp LL211
011516: 611520	   jmp LL209
011517: 611545	   jmp LL208
011520: 233402	   lac writetitle.t i
011521: 553403	   sad writetitle.d
011522: 611524	   jmp LL214
011523: 611525	   jmp LL212
011524: 611545	   jmp LL208
011525: 233402	   lac writetitle.t i
011526: 553342	   sad d37
011527: 611531	   jmp LL217
011530: 611536	   jmp LL215
011531: 213404	   lac writetitle.pst
011532: 053416	   dac spits.s
011533: 112105	   jms spits
011534: 052543	   dac .temp1
011535: 611542	   jmp LL216
011536: 233402	   lac writetitle.t i
011537: 053365	   dac spit.c
011540: 112121	   jms spit
011541: 052544	   dac .temp2
011542: 453402	   isz writetitle.t
011543: 740000	   nop
011544: 611510	   jmp LL207
011545: 233402	   lac writetitle.t i
011546: 553345	   sad d0
011547: 611551	   jmp LL220
011550: 611556	   jmp LL218
011551: 213321	   lac d10
011552: 053365	   dac spit.c
011553: 112121	   jms spit
011554: 052543	   dac .temp1
011555: 631456	   jmp writetitle i
011556: 453402	   isz writetitle.t
011557: 740000	   nop
011560: 213402	   lac writetitle.t
011561: 053351	   dac titlen.t
011562: 213403	   lac writetitle.d
011563: 053352	   dac titlen.c
011564: 213411	   lac writetitle.pstlen
011565: 053353	   dac titlen.k
011566: 112047	   jms titlen
011567: 053407	   dac writetitle.m
011570: 213406	   lac writetitle.l
011571: 053405	   dac writetitle.j
011572: 213300	   lac o_ll
011573: 740001	   cma
011574: 353407	   tad writetitle.m
011575: 740001	   cma
011576: 052543	   dac .temp1
011577: 213327	   lac d2
011600: 051604	   dac .+4
011601: 212543	   lac .temp1
011602: 744000	   cll; idiv; ..; lacq
011603: 653323	
011604: 010000	
011605: 641002	
011606: 052543	   dac .temp1
011607: 213405	   lac writetitle.j
011610: 740001	   cma
011611: 352543	   tad .temp1
011612: 740001	   cma
011613: 740100	   sma
011614: 611624	   jmp LL222
011615: 213334	   lac d32
011616: 053365	   dac spit.c
011617: 112121	   jms spit
011620: 052543	   dac .temp1
011621: 453405	   isz writetitle.j
011622: 740000	   nop
011623: 611572	   jmp LL221
011624: 213326	   lac d1
011625: 741200	   sna
011626: 611661	   jmp LL224
011627: 233402	   lac writetitle.t i
011630: 553345	   sad d0
011631: 611633	   jmp LL227
011632: 611634	   jmp LL225
011633: 611661	   jmp LL224
011634: 233402	   lac writetitle.t i
011635: 553403	   sad writetitle.d
011636: 611640	   jmp LL230
011637: 611641	   jmp LL228
011640: 611661	   jmp LL224
011641: 233402	   lac writetitle.t i
011642: 553342	   sad d37
011643: 611645	   jmp LL233
011644: 611652	   jmp LL231
011645: 213404	   lac writetitle.pst
011646: 053416	   dac spits.s
011647: 112105	   jms spits
011650: 052543	   dac .temp1
011651: 611656	   jmp LL232
011652: 233402	   lac writetitle.t i
011653: 053365	   dac spit.c
011654: 112121	   jms spit
011655: 052544	   dac .temp2
011656: 453402	   isz writetitle.t
011657: 740000	   nop
011660: 611624	   jmp LL223
011661: 233402	   lac writetitle.t i
011662: 553345	   sad d0
011663: 611665	   jmp LL236
011664: 611672	   jmp LL234
011665: 213321	   lac d10
011666: 053365	   dac spit.c
011667: 112121	   jms spit
011670: 052543	   dac .temp1
011671: 631456	   jmp writetitle i
011672: 213300	   lac o_ll
011673: 740001	   cma
011674: 353407	   tad writetitle.m
011675: 740001	   cma
011676: 052544	   dac .temp2
011677: 213327	   lac d2
011700: 051704	   dac .+4
011701: 212544	   lac .temp2
011702: 744000	   cll; idiv; ..; lacq
011703: 653323	
011704: 010000	
011705: 641002	
011706: 052544	   dac .temp2
011707: 213406	   lac writetitle.l
011710: 740001	   cma
011711: 352544	   tad .temp2
011712: 740001	   cma
011713: 740100	   sma
011714: 611736	   jmp LL237
011715: 213300	   lac o_ll
011716: 740001	   cma
011717: 353407	   tad writetitle.m
011720: 740001	   cma
011721: 052543	   dac .temp1
011722: 213327	   lac d2
011723: 051727	   dac .+4
011724: 212543	   lac .temp1
011725: 744000	   cll; idiv; ..; lacq
011726: 653323	
011727: 010000	
011730: 641002	
011731: 052543	   dac .temp1
011732: 213407	   lac writetitle.m
011733: 352543	   tad .temp1
011734: 053407	   dac writetitle.m
011735: 611741	   jmp LL238
011736: 213407	   lac writetitle.m
011737: 353406	   tad writetitle.l
011740: 053407	   dac writetitle.m
011741: 453402	   isz writetitle.t
011742: 740000	   nop
011743: 213402	   lac writetitle.t
011744: 053351	   dac titlen.t
011745: 213403	   lac writetitle.d
011746: 053352	   dac titlen.c
011747: 213411	   lac writetitle.pstlen
011750: 053353	   dac titlen.k
011751: 112047	   jms titlen
011752: 053410	   dac writetitle.n
011753: 213407	   lac writetitle.m
011754: 053405	   dac writetitle.j
011755: 213300	   lac o_ll
011756: 740001	   cma
011757: 353410	   tad writetitle.n
011760: 740001	   cma
011761: 052543	   dac .temp1
011762: 213405	   lac writetitle.j
011763: 740001	   cma
011764: 352543	   tad .temp1
011765: 740001	   cma
011766: 740100	   sma
011767: 611777	   jmp LL240
011770: 213334	   lac d32
011771: 053365	   dac spit.c
011772: 112121	   jms spit
011773: 052543	   dac .temp1
011774: 453405	   isz writetitle.j
011775: 740000	   nop
011776: 611755	   jmp LL239
011777: 213326	   lac d1
012000: 741200	   sna
012001: 612034	   jmp LL242
012002: 233402	   lac writetitle.t i
012003: 553345	   sad d0
012004: 612006	   jmp LL245
012005: 612007	   jmp LL243
012006: 612034	   jmp LL242
012007: 233402	   lac writetitle.t i
012010: 553403	   sad writetitle.d
012011: 612013	   jmp LL248
012012: 612014	   jmp LL246
012013: 612034	   jmp LL242
012014: 233402	   lac writetitle.t i
012015: 553342	   sad d37
012016: 612020	   jmp LL251
012017: 612025	   jmp LL249
012020: 213404	   lac writetitle.pst
012021: 053416	   dac spits.s
012022: 112105	   jms spits
012023: 052543	   dac .temp1
012024: 612031	   jmp LL250
012025: 233402	   lac writetitle.t i
012026: 053365	   dac spit.c
012027: 112121	   jms spit
012030: 052544	   dac .temp2
012031: 453402	   isz writetitle.t
012032: 740000	   nop
012033: 611777	   jmp LL241
012034: 213321	   lac d10
012035: 053365	   dac spit.c
012036: 112121	   jms spit
012037: 052543	   dac .temp1
012040: 631456	   jmp writetitle i
012041: 000000	pgform: 0
012042: 213311	   lac page_no
012043: 053357	   dac itoa.n
012044: 112445	   jms itoa
012045: 053370	   dac pgform.pst
012046: 632041	   jmp pgform i
012047: 000000	titlen: 0
012050: 153354	   dzm titlen.q
012051: 213326	   lac d1
012052: 741200	   sna
012053: 612103	   jmp LL253
012054: 233351	   lac titlen.t i
012055: 553345	   sad d0
012056: 612060	   jmp LL256
012057: 612061	   jmp LL254
012060: 612103	   jmp LL253
012061: 233351	   lac titlen.t i
012062: 553352	   sad titlen.c
012063: 612065	   jmp LL259
012064: 612066	   jmp LL257
012065: 612103	   jmp LL253
012066: 233351	   lac titlen.t i
012067: 553342	   sad d37
012070: 612072	   jmp LL262
012071: 612076	   jmp LL260
012072: 213354	   lac titlen.q
012073: 353353	   tad titlen.k
012074: 053354	   dac titlen.q
012075: 612100	   jmp LL261
012076: 453354	   isz titlen.q
012077: 740000	   nop
012100: 453351	   isz titlen.t
012101: 740000	   nop
012102: 612051	   jmp LL252
012103: 213354	   lac titlen.q
012104: 632047	   jmp titlen i
012105: 000000	spits: 0
012106: 233416	   lac spits.s i
012107: 741200	   sna
012110: 612120	   jmp LL264
012111: 233416	   lac spits.s i
012112: 053365	   dac spit.c
012113: 112121	   jms spit
012114: 052543	   dac .temp1
012115: 453416	   isz spits.s
012116: 740000	   nop
012117: 612106	   jmp LL263
012120: 632105	   jmp spits i
012121: 000000	spit: 0
012122: 213365	   lac spit.c
012123: 512570	   and UNDERL
012124: 053366	   dac spit.ulflag
012125: 212570	   lac UNDERL
012126: 253332	   xor m1
012127: 052543	   dac .temp1
012130: 213365	   lac spit.c
012131: 512543	   and .temp1
012132: 053365	   dac spit.c
012133: 553334	   sad d32
012134: 612157	   jmp LL265
012135: 553321	   sad d10
012136: 612157	   jmp LL267
012137: 213320	   lac n_blanks
012140: 741200	   sna
012141: 612157	   jmp LL269
012142: 213320	   lac n_blanks
012143: 741200	   sna
012144: 612157	   jmp LL272
012145: 213334	   lac d32
012146: 053400	   dac putchar.c
012147: 113451	   jms putchar
012150: 052543	   dac .temp1
012151: 453317	   isz col_no
012152: 740000	   nop
012153: 777777	   -1 ; tad n_blanks
012154: 353320	
012155: 053320	   dac n_blanks
012156: 612142	   jmp LL271
012157: 213366	   lac spit.ulflag
012160: 741200	   sna
012161: 612177	   jmp LL273
012162: 213365	   lac spit.c
012163: 053424	   dac isalnum.c
012164: 112276	   jms isalnum
012165: 741200	   sna
012166: 612177	   jmp LL275
012167: 213347	   lac d95
012170: 053400	   dac putchar.c
012171: 113451	   jms putchar
012172: 052543	   dac .temp1
012173: 213325	   lac d8
012174: 053400	   dac putchar.c
012175: 113451	   jms putchar
012176: 052544	   dac .temp2
012177: 213365	   lac spit.c
012200: 553334	   sad d32
012201: 612203	   jmp LL279
012202: 612206	   jmp LL277
012203: 453320	   isz n_blanks
012204: 740000	   nop
012205: 612214	   jmp LL278
012206: 213365	   lac spit.c
012207: 053400	   dac putchar.c
012210: 113451	   jms putchar
012211: 052543	   dac .temp1
012212: 453317	   isz col_no
012213: 740000	   nop
012214: 213365	   lac spit.c
012215: 553321	   sad d10
012216: 612220	   jmp LL282
012217: 612222	   jmp LL280
012220: 153317	   dzm col_no
012221: 153320	   dzm n_blanks
012222: 632121	   jmp spit i
012223: 000000	suck: 0
012224: 213326	   lac d1
012225: 741200	   sna
012226: 612250	   jmp LL284
012227: 213316	   lac cachec
012230: 053315	   dac c
012231: 153316	   dzm cachec
012232: 213315	   lac c
012233: 553345	   sad d0
012234: 612236	   jmp LL287
012235: 612240	   jmp LL285
012236: 113461	   jms getchar
012237: 053315	   dac c
012240: 213315	   lac c
012241: 053372	   dac islegal.c
012242: 112374	   jms islegal
012243: 741200	   sna
012244: 612247	   jmp LL288
012245: 213315	   lac c
012246: 632223	   jmp suck i
012247: 612224	   jmp LL283
012250: 632223	   jmp suck i
012251: 000000	isspace: 0
012252: 213414	   lac isspace.c
012253: 553334	   sad d32
012254: 612256	   jmp LL292
012255: 612260	   jmp LL290
012256: 213326	   lac d1
012257: 632251	   jmp isspace i
012260: 213414	   lac isspace.c
012261: 553341	   sad d9
012262: 612264	   jmp LL295
012263: 612266	   jmp LL293
012264: 213326	   lac d1
012265: 632251	   jmp isspace i
012266: 213414	   lac isspace.c
012267: 553321	   sad d10
012270: 612272	   jmp LL298
012271: 612274	   jmp LL296
012272: 213326	   lac d1
012273: 632251	   jmp isspace i
012274: 213345	   lac d0
012275: 632251	   jmp isspace i
012276: 000000	isalnum: 0
012277: 213424	   lac isalnum.c
012300: 740001	   cma
012301: 353340	   tad d65
012302: 740001	   cma
012303: 741100	   spa
012304: 612315	   jmp LL299
012305: 213330	   lac d90
012306: 740001	   cma
012307: 353424	   tad isalnum.c
012310: 740001	   cma
012311: 741100	   spa
012312: 612315	   jmp LL301
012313: 213326	   lac d1
012314: 632276	   jmp isalnum i
012315: 213424	   lac isalnum.c
012316: 740001	   cma
012317: 353323	   tad d97
012320: 740001	   cma
012321: 741100	   spa
012322: 612333	   jmp LL303
012323: 213333	   lac d122
012324: 740001	   cma
012325: 353424	   tad isalnum.c
012326: 740001	   cma
012327: 741100	   spa
012330: 612333	   jmp LL305
012331: 213326	   lac d1
012332: 632276	   jmp isalnum i
012333: 213424	   lac isalnum.c
012334: 740001	   cma
012335: 353331	   tad d48
012336: 740001	   cma
012337: 741100	   spa
012340: 612351	   jmp LL307
012341: 213343	   lac d57
012342: 740001	   cma
012343: 353424	   tad isalnum.c
012344: 740001	   cma
012345: 741100	   spa
012346: 612351	   jmp LL309
012347: 213326	   lac d1
012350: 632276	   jmp isalnum i
012351: 213345	   lac d0
012352: 632276	   jmp isalnum i
012353: 000000	isdigit: 0
012354: 213425	   lac isdigit.c
012355: 740001	   cma
012356: 353331	   tad d48
012357: 740001	   cma
012360: 741100	   spa
012361: 612372	   jmp LL311
012362: 213343	   lac d57
012363: 740001	   cma
012364: 353425	   tad isdigit.c
012365: 740001	   cma
012366: 741100	   spa
012367: 612372	   jmp LL313
012370: 213326	   lac d1
012371: 632353	   jmp isdigit i
012372: 213345	   lac d0
012373: 632353	   jmp isdigit i
012374: 000000	islegal: 0
012375: 213372	   lac islegal.c
012376: 740001	   cma
012377: 353334	   tad d32
012400: 740001	   cma
012401: 741100	   spa
012402: 612413	   jmp LL315
012403: 213337	   lac d126
012404: 740001	   cma
012405: 353372	   tad islegal.c
012406: 740001	   cma
012407: 741100	   spa
012410: 612413	   jmp LL317
012411: 213326	   lac d1
012412: 632374	   jmp islegal i
012413: 213372	   lac islegal.c
012414: 553334	   sad d32
012415: 612417	   jmp LL321
012416: 612421	   jmp LL319
012417: 213326	   lac d1
012420: 632374	   jmp islegal i
012421: 213372	   lac islegal.c
012422: 553341	   sad d9
012423: 612425	   jmp LL324
012424: 612427	   jmp LL322
012425: 213326	   lac d1
012426: 632374	   jmp islegal i
012427: 213372	   lac islegal.c
012430: 553321	   sad d10
012431: 612433	   jmp LL327
012432: 612435	   jmp LL325
012433: 213326	   lac d1
012434: 632374	   jmp islegal i
012435: 213372	   lac islegal.c
012436: 553336	   sad d4
012437: 612441	   jmp LL330
012440: 612443	   jmp LL328
012441: 213326	   lac d1
012442: 632374	   jmp islegal i
012443: 213345	   lac d0
012444: 632374	   jmp islegal i
012445: 000000	itoa: 0
012446: 212571	   lac tempbuf
012447: 353341	   tad d9
012450: 053360	   dac itoa.digitptr
012451: 173360	   dzm itoa.digitptr i
012452: 777777	   -1 ; tad itoa.digitptr
012453: 353360	
012454: 053360	   dac itoa.digitptr
012455: 213345	   lac d0
012456: 740001	   cma
012457: 353357	   tad itoa.n
012460: 740001	   cma
012461: 740100	   sma
012462: 612507	   jmp LL332
012463: 213321	   lac d10
012464: 052470	   dac .+4
012465: 213357	   lac itoa.n
012466: 744000	   cll; idiv; ..
012467: 653323	
012470: 010000	
012471: 353331	   tad d48
012472: 073360	   dac itoa.digitptr i
012473: 777777	   -1 ; tad itoa.digitptr
012474: 353360	
012475: 053360	   dac itoa.digitptr
012476: 213321	   lac d10
012477: 052503	   dac .+4
012500: 213357	   lac itoa.n
012501: 744000	   cll; idiv; ..; lacq
012502: 653323	
012503: 010000	
012504: 641002	
012505: 053357	   dac itoa.n
012506: 612455	   jmp LL331
012507: 213360	   lac itoa.digitptr
012510: 353326	   tad d1
012511: 632445	   jmp itoa i
012512: 000000	strcpy: 0
012513: 233377	   lac strcpy.src i
012514: 741200	   sna
012515: 612525	   jmp LL334
012516: 233377	   lac strcpy.src i
012517: 073376	   dac strcpy.dst i
012520: 453376	   isz strcpy.dst
012521: 740000	   nop
012522: 453377	   isz strcpy.src
012523: 740000	   nop
012524: 612513	   jmp LL333
012525: 173376	   dzm strcpy.dst i
012526: 632512	   jmp strcpy i
012527: 000000	strlen: 0
012530: 153375	   dzm strlen.n
012531: 233374	   lac strlen.s i
012532: 741200	   sna
012533: 612541	   jmp LL336
012534: 453374	   isz strlen.s
012535: 740000	   nop
012536: 453375	   isz strlen.n
012537: 740000	   nop
012540: 612531	   jmp LL335
012541: 213375	   lac strlen.n
012542: 632527	   jmp strlen i
012543: 000000	   0
012544: 000000	   0
012545: 000000	   0
012546: 000000	   0
012547: 000000	   0
012550: 000000	   0
012551: 000000	   0
012552: 000000	   0
012553: 000000	   0
012554: 000000	   0
012555: 000000	   0
012556: 000000	   0
012557: 000000	   0
012560: 000000	   0
012561: 000000	   0
012562: 000000	   0
012563: 000000	   0
012564: 000000	   0
012565: 000000	   0
012566: 000000	   0
012567: 000000	   0
012570: 000200	   128
012571: 012572	tempbuf: tempbuf.base
012572: 000000	   0
012573: 000000	   0
012574: 000000	   0
012575: 000000	   0
012576: 000000	   0
012577: 000000	   0
012600: 000000	   0
012601: 000000	   0
012602: 000000	   0
012603: 000000	   0
012604: 000000	   0
012605: 000000	   0
012606: 012607	holdword: holdword.base
012607: 000000	   0
012610: 000000	   0
012611: 000000	   0
012612: 000000	   0
012613: 000000	   0
012614: 000000	   0
012615: 000000	   0
012616: 000000	   0
012617: 000000	   0
012620: 000000	   0
012621: 000000	   0
012622: 000000	   0
012623: 000000	   0
012624: 000000	   0
012625: 000000	   0
012626: 000000	   0
012627: 000000	   0
012630: 000000	   0
012631: 000000	   0
012632: 000000	   0
012633: 000000	   0
012634: 000000	   0
012635: 000000	   0
012636: 000000	   0
012637: 000000	   0
012640: 000000	   0
012641: 000000	   0
012642: 000000	   0
012643: 000000	   0
012644: 000000	   0
012645: 000000	   0
012646: 000000	   0
012647: 000000	   0
012650: 000000	   0
012651: 000000	   0
012652: 000000	   0
012653: 000000	   0
012654: 000000	   0
012655: 000000	   0
012656: 000000	   0
012657: 000000	   0
012660: 000000	   0
012661: 000000	   0
012662: 000000	   0
012663: 000000	   0
012664: 000000	   0
012665: 000000	   0
012666: 000000	   0
012667: 000000	   0
012670: 000000	   0
012671: 000000	   0
012672: 000000	   0
012673: 000000	   0
012674: 000000	   0
012675: 000000	   0
012676: 000000	   0
012677: 000000	   0
012700: 000000	   0
012701: 000000	   0
012702: 000000	   0
012703: 000000	   0
012704: 000000	   0
012705: 000000	   0
012706: 000000	   0
012707: 000000	   0
012710: 000000	   0
012711: 000000	   0
012712: 000000	   0
012713: 000000	   0
012714: 000000	   0
012715: 000000	   0
012716: 012717	assyline: assyline.base
012717: 000000	   0
012720: 000000	   0
012721: 000000	   0
012722: 000000	   0
012723: 000000	   0
012724: 000000	   0
012725: 000000	   0
012726: 000000	   0
012727: 000000	   0
012730: 000000	   0
012731: 000000	   0
012732: 000000	   0
012733: 000000	   0
012734: 000000	   0
012735: 000000	   0
012736: 000000	   0
012737: 000000	   0
012740: 000000	   0
012741: 000000	   0
012742: 000000	   0
012743: 000000	   0
012744: 000000	   0
012745: 000000	   0
012746: 000000	   0
012747: 000000	   0
012750: 000000	   0
012751: 000000	   0
012752: 000000	   0
012753: 000000	   0
012754: 000000	   0
012755: 000000	   0
012756: 000000	   0
012757: 000000	   0
012760: 000000	   0
012761: 000000	   0
012762: 000000	   0
012763: 000000	   0
012764: 000000	   0
012765: 000000	   0
012766: 000000	   0
012767: 000000	   0
012770: 000000	   0
012771: 000000	   0
012772: 000000	   0
012773: 000000	   0
012774: 000000	   0
012775: 000000	   0
012776: 000000	   0
012777: 000000	   0
013000: 000000	   0
013001: 000000	   0
013002: 000000	   0
013003: 000000	   0
013004: 000000	   0
013005: 000000	   0
013006: 000000	   0
013007: 000000	   0
013010: 000000	   0
013011: 000000	   0
013012: 000000	   0
013013: 000000	   0
013014: 000000	   0
013015: 000000	   0
013016: 000000	   0
013017: 000000	   0
013020: 000000	   0
013021: 000000	   0
013022: 000000	   0
013023: 000000	   0
013024: 000000	   0
013025: 000000	   0
013026: 013027	ohead: ohead.base
013027: 000000	   0
013030: 000000	   0
013031: 000000	   0
013032: 000000	   0
013033: 000000	   0
013034: 000000	   0
013035: 000000	   0
013036: 000000	   0
013037: 000000	   0
013040: 000000	   0
013041: 000000	   0
013042: 000000	   0
013043: 000000	   0
013044: 000000	   0
013045: 000000	   0
013046: 000000	   0
013047: 000000	   0
013050: 000000	   0
013051: 000000	   0
013052: 000000	   0
013053: 000000	   0
013054: 000000	   0
013055: 000000	   0
013056: 000000	   0
013057: 000000	   0
013060: 000000	   0
013061: 000000	   0
013062: 000000	   0
013063: 000000	   0
013064: 000000	   0
013065: 000000	   0
013066: 000000	   0
013067: 000000	   0
013070: 000000	   0
013071: 000000	   0
013072: 000000	   0
013073: 000000	   0
013074: 000000	   0
013075: 000000	   0
013076: 000000	   0
013077: 000000	   0
013100: 000000	   0
013101: 000000	   0
013102: 000000	   0
013103: 000000	   0
013104: 000000	   0
013105: 000000	   0
013106: 000000	   0
013107: 000000	   0
013110: 000000	   0
013111: 000000	   0
013112: 000000	   0
013113: 000000	   0
013114: 000000	   0
013115: 000000	   0
013116: 000000	   0
013117: 000000	   0
013120: 000000	   0
013121: 000000	   0
013122: 000000	   0
013123: 000000	   0
013124: 000000	   0
013125: 000000	   0
013126: 000000	   0
013127: 000000	   0
013130: 000000	   0
013131: 000000	   0
013132: 000000	   0
013133: 000000	   0
013134: 000000	   0
013135: 013136	ofoot: ofoot.base
013136: 000000	   0
013137: 000000	   0
013140: 000000	   0
013141: 000000	   0
013142: 000000	   0
013143: 000000	   0
013144: 000000	   0
013145: 000000	   0
013146: 000000	   0
013147: 000000	   0
013150: 000000	   0
013151: 000000	   0
013152: 000000	   0
013153: 000000	   0
013154: 000000	   0
013155: 000000	   0
013156: 000000	   0
013157: 000000	   0
013160: 000000	   0
013161: 000000	   0
013162: 000000	   0
013163: 000000	   0
013164: 000000	   0
013165: 000000	   0
013166: 000000	   0
013167: 000000	   0
013170: 000000	   0
013171: 000000	   0
013172: 000000	   0
013173: 000000	   0
013174: 000000	   0
013175: 000000	   0
013176: 000000	   0
013177: 000000	   0
013200: 000000	   0
013201: 000000	   0
013202: 000000	   0
013203: 000000	   0
013204: 000000	   0
013205: 000000	   0
013206: 000000	   0
013207: 000000	   0
013210: 000000	   0
013211: 000000	   0
013212: 000000	   0
013213: 000000	   0
013214: 000000	   0
013215: 000000	   0
013216: 000000	   0
013217: 000000	   0
013220: 000000	   0
013221: 000000	   0
013222: 000000	   0
013223: 000000	   0
013224: 000000	   0
013225: 000000	   0
013226: 000000	   0
013227: 000000	   0
013230: 000000	   0
013231: 000000	   0
013232: 000000	   0
013233: 000000	   0
013234: 000000	   0
013235: 000000	   0
013236: 000000	   0
013237: 000000	   0
013240: 000000	   0
013241: 000000	   0
013242: 000000	   0
013243: 000000	   0
013244: 000000	   0
013245: 000000	   0
013246: 000000	   0
013247: 000056	   46
013250: 000040	   32
013251: 000000	   0
013252: 013253	o_ta: o_ta.base
013253: 000011	   9
013254: 000021	   17
013255: 000031	   25
013256: 000041	   33
013257: 000051	   41
013260: 000061	   49
013261: 000071	   57
013262: 000101	   65
013263: 000111	   73
013264: 000121	   81
013265: 000131	   89
013266: 000141	   97
013267: 000151	   105
013270: 000161	   113
013271: 000171	   121
013272: 000201	   129
013273: 000211	   137
013274: 000221	   145
013275: 000231	   153
013276: 000241	   161
013277: 000024	   20
013300: 000101	   65
013301: 000001	   1
013302: 000102	   66
013303: 000000	   0
013304: 000002	   2
013305: 000002	   2
013306: 000001	   1
013307: 000003	   3
013310: 000000	   0
013311: 777777	   -1
013312: 023417	   9999
013313: 000000	   0
013314: 000000	   0
013315: 000000	   0
013316: 000000	   0
013317: 000000	   0
013320: 000000	   0
013321: 000012	d10: 10
013322: 157150	d56936: 56936
013323: 000141	d97: 97
013324: 000056	d46: 46
013325: 000010	d8: 8
013326: 000001	d1: 1
013327: 000002	d2: 2
013330: 000132	d90: 90
013331: 000060	d48: 48
013332: 777777	m1: -1
013333: 000172	d122: 122
013334: 000040	d32: 32
013335: 165154	d60012: 60012
013336: 000004	d4: 4
013337: 000176	d126: 126
013340: 000101	d65: 65
013341: 000011	d9: 9
013342: 000045	d37: 37
013343: 000071	d57: 57
013344: 163160	d58992: 58992
013345: 000000	d0: 0
013346: 164141	d59489: 59489
013347: 000137	d95: 95
013350: 000000	tabulate.j: 0
013351: 000000	titlen.t: 0
013352: 000000	titlen.c: 0
013353: 000000	titlen.k: 0
013354: 000000	titlen.q: 0
013355: 000000	readline.startline: 0
013356: 000000	readline.doingword: 0
013357: 000000	itoa.n: 0
013360: 000000	itoa.digitptr: 0
013361: 000000	nread.i: 0
013362: 000000	nread.f: 0
013363: 000000	tread.s: 0
013364: 000000	tread.leadbl: 0
013365: 000000	spit.c: 0
013366: 000000	spit.ulflag: 0
013367: 000000	spit.t: 0
013370: 000000	pgform.pst: 0
013371: 000000	endpage.i: 0
013372: 000000	islegal.c: 0
013373: 000000	do_ta.v: 0
013374: 000000	strlen.s: 0
013375: 000000	strlen.n: 0
013376: 000000	strcpy.dst: 0
013377: 000000	strcpy.src: 0
013400: 000000	putchar.c: 0
013401: 000000	readreq.r: 0
013402: 000000	writetitle.t: 0
013403: 000000	writetitle.d: 0
013404: 000000	writetitle.pst: 0
013405: 000000	writetitle.j: 0
013406: 000000	writetitle.l: 0
013407: 000000	writetitle.m: 0
013410: 000000	writetitle.n: 0
013411: 000000	writetitle.pstlen: 0
013412: 000000	writebreak.q: 0
013413: 000000	beginpage.i: 0
013414: 000000	isspace.c: 0
013415: 000000	bumpword.x: 0
013416: 000000	spits.s: 0
013417: 000000	writeline.adflag: 0
013420: 000000	writeline.flushflag: 0
013421: 000000	writeline.j: 0
013422: 000000	writeline.q: 0
013423: 000000	printn.n: 0
013424: 000000	isalnum.c: 0
013425: 000000	isdigit.c: 0
013426: 000000	printn: 0 " Print printn_n in octal
013427: 213423	   lac printn.n
013430: 652000	   lmq
013431: 777772	   -6
013432: 053517	   dac .cnt " Set up a loop for 6 times
013433: 641603	   clls 3 " Shift an octal digit into AC
013434: 353524	   tad .o60 " Add AC to ASCII '0'
013435: 053522	   dac .char " and print out the digit
013436: 213520	   lac .fd1
013437: 020005	   sys write; .char; 1
013440: 013522	
013441: 000001	
013442: 453517	   isz .cnt " Any more characters to print out?
013443: 613433	     jmp 1b " Yes, loop back
013444: 213520	   lac .fd1 " Print out a space
013445: 020005	   sys write; .newline; 1
013446: 013523	
013447: 000001	
013450: 633426	   jmp printn i
013451: 000000	putchar: 0
013452: 213400	   lac putchar.c " Get the character
013453: 053522	   dac .char
013454: 213520	   lac .fd1
013455: 020005	   sys write; .char; 1 " and write it out
013456: 013522	
013457: 000001	
013460: 633451	   jmp putchar i
013461: 000000	getchar: 0
013462: 213527	   lac .ipt " Load the pointer to the next word in the buffer
013463: 553530	   sad .eipt
013464: 613500	     jmp 1f " We've reached the end of the buffer, so read more
013465: 053525	   dac 2f " Save the pointer
013466: 313633	   add .o400000 " Flip the msb and save into ipt
013467: 053527	   dac .ipt
013470: 740010	   ral " Move the msb into the link register
013471: 233525	   lac 2f i " Load the word from the buffer
013472: 741400	   szl " Skip if this is the second character in the word
013473: 660511	     lrss 9 " It's the first char, shift down the top character
013474: 513634	   and .o177 " Keep the lowest 7 bits
013475: 741200	   sna
013476: 613462	     jmp getchar+1 " Skip a NUL characters and read another one
013477: 633461	   jmp getchar i " Return the character from the subroutine
013500: 213521	   lac .fd0 " Buffer is empty, read another 64 characters
013501: 020004	   sys read; .iipt+1; 64
013502: 013532	
013503: 000100	
013504: 741200	   sna
013505: 613513	     jmp 1f " No characters were read in
013506: 353531	   tad .iipt " Add the word count to the base of the buffer
013507: 053530	   dac .eipt " and store in the end buffer pointer
013510: 213531	   lac .iipt " Reset the ipt to the base of the buffer
013511: 053527	   dac .ipt
013512: 613462	   jmp getchar+1 " and loop back to get one character
013513: 213632	   lac .o4 " No character, return with ctrl-D
013514: 633461	   jmp getchar i
013515: 000000	.exit: 0
013516: 020016	   sys exit
013517: 000000	.cnt: 0 " Loop counter for printn
013520: 000001	.d1: .fd1: 1 " Output file descriptor
013521: 000000	.fd0: 0 " Input file descriptor
013522: 000000	.char: 0
013523: 000012	.newline: 10 " Used in printn
013524: 000060	.o60: 060 " ASCII '0', used in printn
013525: 000000	2: 0;0 " Current input and output word pointers
013526: 000000	
013527: 000000	.ipt: 0 " Current input buffer base
013530: 000000	.eipt: 0 " Pointer to end of data read in input buffer
013531: 013532	.iipt: .+1; .=.+64 " 64 word input buffer and pointer to it
013632: 000004	.o4: 4 " ctrl-D, used in getchar
013633: 400000	.o400000: 0400000 " Msb toggle bit, used in getchar
013634: 000177	.o177: 0177 " ASCII mask, used in getchar
